#include <math.h>
#include <stdio.h>
#include <stdlib.h>
#include <string.h>

int main()
{
    int row,col,i,j,**p,k;
    scanf("%d %d",&row,&col);
    p=(int**)malloc(row*sizeof(int*));
    for(i=0;i<row;i++)
    *(p+i)=(int*)malloc(col*sizeof(int));
      for(i=0;i<row;i++)
      for(j=0;j<col;j++)
      scanf("%d",*(p+i)+j);
    for(j=0;j<col;j++)
    {
        i=0;
        k=j;
        while(k>=0&&i<row)
        {
            printf("%d\n",*(*(p+i)+k));
            i++;
            k--;
        }
    }
    for(i=1;i<row;i++)
    {
        j=col-1;
        k=i;
        while(k<row&&j>=0)
        {
            printf("%d\n",*(*(p+k)+j));
            k++;
            j--;
        }
    }
}
