; ModuleID = '4/45.c'
source_filename = "4/45.c"
target datalayout = "e-m:e-p270:32:32-p271:32:32-p272:64:64-i64:64-f80:128-n8:16:32:64-S128"
target triple = "x86_64-pc-linux-gnu"

@.str = private unnamed_addr constant [6 x i8] c"%d %d\00", align 1
@.str.1 = private unnamed_addr constant [3 x i8] c"%d\00", align 1
@.str.2 = private unnamed_addr constant [4 x i8] c"%d\0A\00", align 1

; Function Attrs: noinline nounwind uwtable
define dso_local i32 @main() #0 {
  %1 = alloca i32, align 4
  %2 = alloca i32, align 4
  %3 = alloca i32, align 4
  %4 = alloca i32, align 4
  %5 = alloca i32, align 4
  %6 = alloca i32**, align 8
  %7 = alloca i32, align 4
  store i32 0, i32* %1, align 4
  %8 = call i32 (i8*, ...) @__isoc99_scanf(i8* getelementptr inbounds ([6 x i8], [6 x i8]* @.str, i64 0, i64 0), i32* %2, i32* %3)
  %9 = load i32, i32* %2, align 4
  %10 = sext i32 %9 to i64
  %11 = mul i64 %10, 8
  %12 = call noalias i8* @malloc(i64 %11) #3
  %13 = bitcast i8* %12 to i32**
  store i32** %13, i32*** %6, align 8
  store i32 0, i32* %4, align 4
  br label %14

14:                                               ; preds = %28, %0
  %15 = load i32, i32* %4, align 4
  %16 = load i32, i32* %2, align 4
  %17 = icmp slt i32 %15, %16
  br i1 %17, label %18, label %31

18:                                               ; preds = %14
  %19 = load i32, i32* %3, align 4
  %20 = sext i32 %19 to i64
  %21 = mul i64 %20, 4
  %22 = call noalias i8* @malloc(i64 %21) #3
  %23 = bitcast i8* %22 to i32*
  %24 = load i32**, i32*** %6, align 8
  %25 = load i32, i32* %4, align 4
  %26 = sext i32 %25 to i64
  %27 = getelementptr inbounds i32*, i32** %24, i64 %26
  store i32* %23, i32** %27, align 8
  br label %28

28:                                               ; preds = %18
  %29 = load i32, i32* %4, align 4
  %30 = add nsw i32 %29, 1
  store i32 %30, i32* %4, align 4
  br label %14

31:                                               ; preds = %14
  store i32 0, i32* %4, align 4
  br label %32

32:                                               ; preds = %55, %31
  %33 = load i32, i32* %4, align 4
  %34 = load i32, i32* %2, align 4
  %35 = icmp slt i32 %33, %34
  br i1 %35, label %36, label %58

36:                                               ; preds = %32
  store i32 0, i32* %5, align 4
  br label %37

37:                                               ; preds = %51, %36
  %38 = load i32, i32* %5, align 4
  %39 = load i32, i32* %3, align 4
  %40 = icmp slt i32 %38, %39
  br i1 %40, label %41, label %54

41:                                               ; preds = %37
  %42 = load i32**, i32*** %6, align 8
  %43 = load i32, i32* %4, align 4
  %44 = sext i32 %43 to i64
  %45 = getelementptr inbounds i32*, i32** %42, i64 %44
  %46 = load i32*, i32** %45, align 8
  %47 = load i32, i32* %5, align 4
  %48 = sext i32 %47 to i64
  %49 = getelementptr inbounds i32, i32* %46, i64 %48
  %50 = call i32 (i8*, ...) @__isoc99_scanf(i8* getelementptr inbounds ([3 x i8], [3 x i8]* @.str.1, i64 0, i64 0), i32* %49)
  br label %51

51:                                               ; preds = %41
  %52 = load i32, i32* %5, align 4
  %53 = add nsw i32 %52, 1
  store i32 %53, i32* %5, align 4
  br label %37

54:                                               ; preds = %37
  br label %55

55:                                               ; preds = %54
  %56 = load i32, i32* %4, align 4
  %57 = add nsw i32 %56, 1
  store i32 %57, i32* %4, align 4
  br label %32

58:                                               ; preds = %32
  store i32 0, i32* %5, align 4
  br label %59

59:                                               ; preds = %90, %58
  %60 = load i32, i32* %5, align 4
  %61 = load i32, i32* %3, align 4
  %62 = icmp slt i32 %60, %61
  br i1 %62, label %63, label %93

63:                                               ; preds = %59
  store i32 0, i32* %4, align 4
  %64 = load i32, i32* %5, align 4
  store i32 %64, i32* %7, align 4
  br label %65

65:                                               ; preds = %74, %63
  %66 = load i32, i32* %7, align 4
  %67 = icmp sge i32 %66, 0
  br i1 %67, label %68, label %72

68:                                               ; preds = %65
  %69 = load i32, i32* %4, align 4
  %70 = load i32, i32* %2, align 4
  %71 = icmp slt i32 %69, %70
  br label %72

72:                                               ; preds = %68, %65
  %73 = phi i1 [ false, %65 ], [ %71, %68 ]
  br i1 %73, label %74, label %89

74:                                               ; preds = %72
  %75 = load i32**, i32*** %6, align 8
  %76 = load i32, i32* %4, align 4
  %77 = sext i32 %76 to i64
  %78 = getelementptr inbounds i32*, i32** %75, i64 %77
  %79 = load i32*, i32** %78, align 8
  %80 = load i32, i32* %7, align 4
  %81 = sext i32 %80 to i64
  %82 = getelementptr inbounds i32, i32* %79, i64 %81
  %83 = load i32, i32* %82, align 4
  %84 = call i32 (i8*, ...) @printf(i8* getelementptr inbounds ([4 x i8], [4 x i8]* @.str.2, i64 0, i64 0), i32 %83)
  %85 = load i32, i32* %4, align 4
  %86 = add nsw i32 %85, 1
  store i32 %86, i32* %4, align 4
  %87 = load i32, i32* %7, align 4
  %88 = add nsw i32 %87, -1
  store i32 %88, i32* %7, align 4
  br label %65

89:                                               ; preds = %72
  br label %90

90:                                               ; preds = %89
  %91 = load i32, i32* %5, align 4
  %92 = add nsw i32 %91, 1
  store i32 %92, i32* %5, align 4
  br label %59

93:                                               ; preds = %59
  store i32 1, i32* %4, align 4
  br label %94

94:                                               ; preds = %127, %93
  %95 = load i32, i32* %4, align 4
  %96 = load i32, i32* %2, align 4
  %97 = icmp slt i32 %95, %96
  br i1 %97, label %98, label %130

98:                                               ; preds = %94
  %99 = load i32, i32* %3, align 4
  %100 = sub nsw i32 %99, 1
  store i32 %100, i32* %5, align 4
  %101 = load i32, i32* %4, align 4
  store i32 %101, i32* %7, align 4
  br label %102

102:                                              ; preds = %111, %98
  %103 = load i32, i32* %7, align 4
  %104 = load i32, i32* %2, align 4
  %105 = icmp slt i32 %103, %104
  br i1 %105, label %106, label %109

106:                                              ; preds = %102
  %107 = load i32, i32* %5, align 4
  %108 = icmp sge i32 %107, 0
  br label %109

109:                                              ; preds = %106, %102
  %110 = phi i1 [ false, %102 ], [ %108, %106 ]
  br i1 %110, label %111, label %126

111:                                              ; preds = %109
  %112 = load i32**, i32*** %6, align 8
  %113 = load i32, i32* %7, align 4
  %114 = sext i32 %113 to i64
  %115 = getelementptr inbounds i32*, i32** %112, i64 %114
  %116 = load i32*, i32** %115, align 8
  %117 = load i32, i32* %5, align 4
  %118 = sext i32 %117 to i64
  %119 = getelementptr inbounds i32, i32* %116, i64 %118
  %120 = load i32, i32* %119, align 4
  %121 = call i32 (i8*, ...) @printf(i8* getelementptr inbounds ([4 x i8], [4 x i8]* @.str.2, i64 0, i64 0), i32 %120)
  %122 = load i32, i32* %7, align 4
  %123 = add nsw i32 %122, 1
  store i32 %123, i32* %7, align 4
  %124 = load i32, i32* %5, align 4
  %125 = add nsw i32 %124, -1
  store i32 %125, i32* %5, align 4
  br label %102

126:                                              ; preds = %109
  br label %127

127:                                              ; preds = %126
  %128 = load i32, i32* %4, align 4
  %129 = add nsw i32 %128, 1
  store i32 %129, i32* %4, align 4
  br label %94

130:                                              ; preds = %94
  %131 = load i32, i32* %1, align 4
  ret i32 %131
}

declare dso_local i32 @__isoc99_scanf(i8*, ...) #1

; Function Attrs: nounwind
declare dso_local noalias i8* @malloc(i64) #2

declare dso_local i32 @printf(i8*, ...) #1


!llvm.module.flags = !{!0}
!llvm.ident = !{!1}

!0 = !{i32 1, !"wchar_size", i32 4}
!1 = !{!"clang version 10.0.0-4ubuntu1 "}
